; Function Attrs: nounwind uwtable
define ptr @l_Lean_Meta_isInstOfNatInt(ptr noundef %0, ptr noundef %1, ptr noundef %2, ptr noundef %3, ptr noundef %4, ptr noundef %5) local_unnamed_addr #0 {
  %7 = tail call ptr @l_Lean_Meta_instantiateMVarsIfMVarApp(ptr noundef %0, ptr noundef %1, ptr noundef %2, ptr noundef %3, ptr noundef %4, ptr noundef %5) #3
  %8 = getelementptr inbounds nuw i8, ptr %7, i64 8
  %9 = load ptr, ptr %8, align 8, !tbaa !9
  %10 = ptrtoint ptr %9 to i64
  %11 = and i64 %10, 1
  %.not = icmp eq i64 %11, 0
  br i1 %.not, label %12, label %lean_inc.exit

12:                                               ; preds = %6
  %.val.i = load i32, ptr %9, align 4, !tbaa !4
  %13 = icmp sgt i32 %.val.i, 0
  br i1 %13, label %14, label %16, !prof !11

14:                                               ; preds = %12
  %15 = add nuw i32 %.val.i, 1
  store i32 %15, ptr %9, align 4, !tbaa !4
  br label %lean_inc.exit

16:                                               ; preds = %12
  %.not.i51 = icmp eq i32 %.val.i, 0
  br i1 %.not.i51, label %lean_inc.exit, label %17

17:                                               ; preds = %16
  tail call void @lean_inc_ref_cold(ptr noundef nonnull %9) #3
  br label %lean_inc.exit

lean_inc.exit:                                    ; preds = %17, %16, %14, %6
  %18 = getelementptr inbounds nuw i8, ptr %7, i64 16
  %19 = load ptr, ptr %18, align 8, !tbaa !9
  %20 = ptrtoint ptr %19 to i64
  %21 = and i64 %20, 1
  %.not55 = icmp eq i64 %21, 0
  br i1 %.not55, label %22, label %lean_inc.exit44

22:                                               ; preds = %lean_inc.exit
  %.val.i52 = load i32, ptr %19, align 4, !tbaa !4
  %23 = icmp sgt i32 %.val.i52, 0
  br i1 %23, label %24, label %26, !prof !11

24:                                               ; preds = %22
  %25 = add nuw i32 %.val.i52, 1
  store i32 %25, ptr %19, align 4, !tbaa !4
  br label %lean_inc.exit44

26:                                               ; preds = %22
  %.not.i53 = icmp eq i32 %.val.i52, 0
  br i1 %.not.i53, label %lean_inc.exit44, label %27

27:                                               ; preds = %26
  tail call void @lean_inc_ref_cold(ptr noundef nonnull %19) #3
  br label %lean_inc.exit44

lean_inc.exit44:                                  ; preds = %27, %26, %24, %lean_inc.exit
  %28 = ptrtoint ptr %7 to i64
  %29 = and i64 %28, 1
  %.not56 = icmp eq i64 %29, 0
  br i1 %.not56, label %30, label %lean_dec.exit

30:                                               ; preds = %lean_inc.exit44
  %31 = load i32, ptr %7, align 4, !tbaa !4
  %32 = icmp sgt i32 %31, 1
  br i1 %32, label %33, label %35, !prof !11

33:                                               ; preds = %30
  %34 = add nsw i32 %31, -1
  store i32 %34, ptr %7, align 4, !tbaa !4
  br label %lean_dec.exit

35:                                               ; preds = %30
  %.not.i49 = icmp eq i32 %31, 0
  br i1 %.not.i49, label %lean_dec.exit, label %36

36:                                               ; preds = %35
  tail call void @lean_dec_ref_cold(ptr noundef nonnull %7) #3
  br label %lean_dec.exit

lean_dec.exit:                                    ; preds = %36, %35, %33, %lean_inc.exit44
  %37 = load ptr, ptr @l_Lean_Meta_isInstOfNatInt___closed__1, align 8, !tbaa !9
  %38 = load ptr, ptr @l_Lean_Meta_isInstOfNatInt___closed__2, align 8, !tbaa !9
  %39 = tail call ptr @l_Lean_Expr_cleanupAnnotations(ptr noundef %9) #3
  %40 = tail call zeroext i8 @l_Lean_Expr_isApp(ptr noundef %39) #3
  %41 = icmp eq i8 %40, 0
  br i1 %41, label %42, label %52

42:                                               ; preds = %lean_dec.exit
  %43 = ptrtoint ptr %39 to i64
  %44 = and i64 %43, 1
  %.not58 = icmp eq i64 %44, 0
  br i1 %.not58, label %45, label %lean_dec.exit45

45:                                               ; preds = %42
  %46 = load i32, ptr %39, align 4, !tbaa !4
  %47 = icmp sgt i32 %46, 1
  br i1 %47, label %48, label %50, !prof !11

48:                                               ; preds = %45
  %49 = add nsw i32 %46, -1
  store i32 %49, ptr %39, align 4, !tbaa !4
  br label %lean_dec.exit45

50:                                               ; preds = %45
  %.not.i47 = icmp eq i32 %46, 0
  br i1 %.not.i47, label %lean_dec.exit45, label %51

51:                                               ; preds = %50
  tail call void @lean_dec_ref_cold(ptr noundef nonnull %39) #3
  br label %lean_dec.exit45

52:                                               ; preds = %lean_dec.exit
  %53 = tail call ptr @l_Lean_Expr_appFnCleanup(ptr noundef %39, ptr noundef nonnull inttoptr (i64 1 to ptr)) #3
  %54 = load ptr, ptr @l_Lean_Meta_isInstOfNatInt___closed__4, align 8, !tbaa !9
  %55 = tail call zeroext i8 @l_Lean_Expr_isConstOf(ptr noundef %53, ptr noundef %54) #3
  %56 = ptrtoint ptr %53 to i64
  %57 = and i64 %56, 1
  %.not57 = icmp eq i64 %57, 0
  br i1 %.not57, label %58, label %lean_dec.exit46

58:                                               ; preds = %52
  %59 = load i32, ptr %53, align 4, !tbaa !4
  %60 = icmp sgt i32 %59, 1
  br i1 %60, label %61, label %63, !prof !11

61:                                               ; preds = %58
  %62 = add nsw i32 %59, -1
  store i32 %62, ptr %53, align 4, !tbaa !4
  br label %lean_dec.exit46

63:                                               ; preds = %58
  %.not.i = icmp eq i32 %59, 0
  br i1 %.not.i, label %lean_dec.exit46, label %64

64:                                               ; preds = %63
  tail call void @lean_dec_ref_cold(ptr noundef nonnull %53) #3
  br label %lean_dec.exit46

lean_dec.exit46:                                  ; preds = %64, %63, %61, %52
  %65 = icmp eq i8 %55, 0
  %. = select i1 %65, ptr %38, ptr %37
  br label %lean_dec.exit45

lean_dec.exit45:                                  ; preds = %lean_dec.exit46, %42, %48, %50, %51
  %.sink = phi ptr [ %38, %51 ], [ %38, %50 ], [ %38, %48 ], [ %38, %42 ], [ %., %lean_dec.exit46 ]
  %66 = tail call ptr @lean_apply_6(ptr noundef %.sink, ptr noundef nonnull inttoptr (i64 1 to ptr), ptr noundef %1, ptr noundef %2, ptr noundef %3, ptr noundef %4, ptr noundef %19) #3
  ret ptr %66
}